target datalayout = "e-m:e-p270:32:32-p271:32:32-p272:64:64-i64:64-i128:128-f80:128-n8:16:32:64-S128"
target triple = "x86_64-pc-linux-gnu"

%struct.alts_frame_protector = type { %struct.tsi_frame_protector, ptr, ptr, ptr, ptr, ptr, ptr, i64, i64, i64, i64, i64, i64 }
%struct.tsi_frame_protector = type { ptr }

; Function Attrs: mustprogress uwtable
define internal void @_ZL12alts_destroyP19tsi_frame_protector(ptr noundef %0) #4 {
  %2 = alloca ptr, align 8
  %3 = alloca ptr, align 8
  store ptr %0, ptr %2, align 8, !tbaa !40
  call void @llvm.lifetime.start.p0(i64 8, ptr %3) #3
  %4 = load ptr, ptr %2, align 8, !tbaa !40
  store ptr %4, ptr %3, align 8, !tbaa !17
  %5 = load ptr, ptr %3, align 8, !tbaa !17
  %6 = icmp ne ptr %5, null
  br i1 %6, label %7, label %27

7:                                                ; preds = %1
  %8 = load ptr, ptr %3, align 8, !tbaa !17
  %9 = getelementptr inbounds nuw %struct.alts_frame_protector, ptr %8, i32 0, i32 1
  %10 = load ptr, ptr %9, align 8, !tbaa !35
  call void @_Z20alts_crypter_destroyP12alts_crypter(ptr noundef %10)
  %11 = load ptr, ptr %3, align 8, !tbaa !17
  %12 = getelementptr inbounds nuw %struct.alts_frame_protector, ptr %11, i32 0, i32 2
  %13 = load ptr, ptr %12, align 8, !tbaa !110
  call void @_Z20alts_crypter_destroyP12alts_crypter(ptr noundef %13)
  %14 = load ptr, ptr %3, align 8, !tbaa !17
  %15 = getelementptr inbounds nuw %struct.alts_frame_protector, ptr %14, i32 0, i32 5
  %16 = load ptr, ptr %15, align 8, !tbaa !33
  call void @gpr_free(ptr noundef %16)
  %17 = load ptr, ptr %3, align 8, !tbaa !17
  %18 = getelementptr inbounds nuw %struct.alts_frame_protector, ptr %17, i32 0, i32 6
  %19 = load ptr, ptr %18, align 8, !tbaa !34
  call void @gpr_free(ptr noundef %19)
  %20 = load ptr, ptr %3, align 8, !tbaa !17
  %21 = getelementptr inbounds nuw %struct.alts_frame_protector, ptr %20, i32 0, i32 3
  %22 = load ptr, ptr %21, align 8, !tbaa !37
  call void @_Z25alts_destroy_frame_writerP17alts_frame_writer(ptr noundef %22)
  %23 = load ptr, ptr %3, align 8, !tbaa !17
  %24 = getelementptr inbounds nuw %struct.alts_frame_protector, ptr %23, i32 0, i32 4
  %25 = load ptr, ptr %24, align 8, !tbaa !38
  call void @_Z25alts_destroy_frame_readerP17alts_frame_reader(ptr noundef %25)
  %26 = load ptr, ptr %3, align 8, !tbaa !17
  call void @gpr_free(ptr noundef %26)
  br label %27

27:                                               ; preds = %7, %1
  call void @llvm.lifetime.end.p0(i64 8, ptr %3) #3
  ret void
}