; Function Attrs: mustprogress uwtable
define internal void @_ZL12alts_destroyP19tsi_frame_protector(ptr noundef %0) #3 {
  %.not = icmp eq ptr %0, null
  br i1 %.not, label %15, label %2

2:                                                ; preds = %1
  %3 = getelementptr inbounds nuw i8, ptr %0, i64 8
  %4 = load ptr, ptr %3, align 8, !tbaa !34
  tail call void @_Z20alts_crypter_destroyP12alts_crypter(ptr noundef %4)
  %5 = getelementptr inbounds nuw i8, ptr %0, i64 16
  %6 = load ptr, ptr %5, align 8, !tbaa !45
  tail call void @_Z20alts_crypter_destroyP12alts_crypter(ptr noundef %6)
  %7 = getelementptr inbounds nuw i8, ptr %0, i64 40
  %8 = load ptr, ptr %7, align 8, !tbaa !32
  tail call void @gpr_free(ptr noundef %8)
  %9 = getelementptr inbounds nuw i8, ptr %0, i64 48
  %10 = load ptr, ptr %9, align 8, !tbaa !33
  tail call void @gpr_free(ptr noundef %10)
  %11 = getelementptr inbounds nuw i8, ptr %0, i64 24
  %12 = load ptr, ptr %11, align 8, !tbaa !36
  tail call void @_Z25alts_destroy_frame_writerP17alts_frame_writer(ptr noundef %12)
  %13 = getelementptr inbounds nuw i8, ptr %0, i64 32
  %14 = load ptr, ptr %13, align 8, !tbaa !37
  tail call void @_Z25alts_destroy_frame_readerP17alts_frame_reader(ptr noundef %14)
  tail call void @gpr_free(ptr noundef nonnull %0)
  br label %15

15:                                               ; preds = %2, %1
  ret void
}